; Function Attrs: mustprogress uwtable
define hidden void @_ZN4cvc58internal13preprocessing6passes7ITESimpC2EPNS1_24PreprocessingPassContextE(ptr noundef nonnull align 8 dereferenceable(120) %this, ptr noundef %preprocContext) unnamed_addr #3 align 2 personality ptr @__gxx_personality_v0 {
entry:
  %ref.tmp = alloca %"class.std::__cxx11::basic_string", align 8
  %ref.tmp2 = alloca %"class.std::allocator.81", align 1
  call void @_ZNSaIcEC1Ev(ptr noundef nonnull align 1 dereferenceable(1) %ref.tmp2) #14
  %call.i5 = invoke noundef ptr @_ZNSt7__cxx1112basic_stringIcSt11char_traitsIcESaIcEE13_M_local_dataEv(ptr noundef nonnull align 8 dereferenceable(32) %ref.tmp)
          to label %call.i.noexc unwind label %lpad

call.i.noexc:                                     ; preds = %entry
  invoke void @_ZNSt7__cxx1112basic_stringIcSt11char_traitsIcESaIcEE12_Alloc_hiderC1EPcRKS3_(ptr noundef nonnull align 8 dereferenceable(8) %ref.tmp, ptr noundef %call.i5, ptr noundef nonnull align 1 dereferenceable(1) %ref.tmp2)
          to label %.noexc unwind label %lpad

.noexc:                                           ; preds = %call.i.noexc
  invoke void @_ZNSt7__cxx1112basic_stringIcSt11char_traitsIcESaIcEE12_M_constructIPKcEEvT_S8_St20forward_iterator_tag(ptr noundef nonnull align 8 dereferenceable(32) %ref.tmp, ptr noundef nonnull @.str.16, ptr noundef nonnull getelementptr inbounds ([9 x i8], ptr @.str.16, i64 0, i64 8))
          to label %invoke.cont unwind label %lpad.i

lpad.i:                                           ; preds = %.noexc
  %0 = landingpad { ptr, i32 }
          cleanup
  call void @_ZNSaIcED2Ev(ptr noundef nonnull align 1 dereferenceable(1) %ref.tmp) #14
  br label %ehcleanup

invoke.cont:                                      ; preds = %.noexc
  invoke void @_ZN4cvc58internal13preprocessing17PreprocessingPassC2EPNS1_24PreprocessingPassContextERKNSt7__cxx1112basic_stringIcSt11char_traitsIcESaIcEEE(ptr noundef nonnull align 8 dereferenceable(64) %this, ptr noundef %preprocContext, ptr noundef nonnull align 8 dereferenceable(32) %ref.tmp)
          to label %invoke.cont4 unwind label %lpad3

invoke.cont4:                                     ; preds = %invoke.cont
  call void @_ZNSt7__cxx1112basic_stringIcSt11char_traitsIcESaIcEED1Ev(ptr noundef nonnull align 8 dereferenceable(32) %ref.tmp) #14
  call void @_ZNSaIcED1Ev(ptr noundef nonnull align 1 dereferenceable(1) %ref.tmp2) #14
  store ptr getelementptr inbounds ({ [5 x ptr] }, ptr @_ZTVN4cvc58internal13preprocessing6passes7ITESimpE, i64 0, i32 0, i64 2), ptr %this, align 8
  %d_iteUtilities = getelementptr inbounds i8, ptr %this, i64 64
  %d_env = getelementptr inbounds i8, ptr %this, i64 8
  %1 = load ptr, ptr %d_env, align 8
  invoke void @_ZN4cvc58internal13preprocessing4util12ITEUtilitiesC1ERNS0_3EnvE(ptr noundef nonnull align 8 dereferenceable(48) %d_iteUtilities, ptr noundef nonnull align 8 dereferenceable(576) %1)
          to label %invoke.cont6 unwind label %lpad5

invoke.cont6:                                     ; preds = %invoke.cont4
  %call = invoke noundef nonnull align 8 dereferenceable(72) ptr @_ZNK4cvc58internal6EnvObj18statisticsRegistryEv(ptr noundef nonnull align 8 dereferenceable(16) %this)
          to label %invoke.cont8 unwind label %lpad7

invoke.cont8:                                     ; preds = %invoke.cont6
  %d_statistics = getelementptr inbounds i8, ptr %this, i64 112
  invoke void @_ZN4cvc58internal13preprocessing6passes7ITESimp10StatisticsC2ERNS0_18StatisticsRegistryE(ptr noundef nonnull align 8 dereferenceable(8) %d_statistics, ptr noundef nonnull align 8 dereferenceable(72) %call)
          to label %invoke.cont9 unwind label %lpad7

invoke.cont9:                                     ; preds = %invoke.cont8
  ret void

lpad:                                             ; preds = %call.i.noexc, %entry
  %2 = landingpad { ptr, i32 }
          cleanup
  br label %ehcleanup

lpad3:                                            ; preds = %invoke.cont
  %3 = landingpad { ptr, i32 }
          cleanup
  call void @_ZNSt7__cxx1112basic_stringIcSt11char_traitsIcESaIcEED1Ev(ptr noundef nonnull align 8 dereferenceable(32) %ref.tmp) #14
  br label %ehcleanup

ehcleanup:                                        ; preds = %lpad, %lpad.i, %lpad3
  %.pn = phi { ptr, i32 } [ %3, %lpad3 ], [ %2, %lpad ], [ %0, %lpad.i ]
  call void @_ZNSaIcED1Ev(ptr noundef nonnull align 1 dereferenceable(1) %ref.tmp2) #14
  br label %eh.resume

lpad5:                                            ; preds = %invoke.cont4
  %4 = landingpad { ptr, i32 }
          cleanup
  br label %ehcleanup11

lpad7:                                            ; preds = %invoke.cont8, %invoke.cont6
  %5 = landingpad { ptr, i32 }
          cleanup
  call void @_ZN4cvc58internal13preprocessing4util12ITEUtilitiesD1Ev(ptr noundef nonnull align 8 dereferenceable(48) %d_iteUtilities) #14
  br label %ehcleanup11

ehcleanup11:                                      ; preds = %lpad7, %lpad5
  %.pn2 = phi { ptr, i32 } [ %5, %lpad7 ], [ %4, %lpad5 ]
  call void @_ZN4cvc58internal13preprocessing17PreprocessingPassD2Ev(ptr noundef nonnull align 8 dereferenceable(64) %this) #14
  br label %eh.resume

eh.resume:                                        ; preds = %ehcleanup11, %ehcleanup
  %.pn2.pn = phi { ptr, i32 } [ %.pn2, %ehcleanup11 ], [ %.pn, %ehcleanup ]
  resume { ptr, i32 } %.pn2.pn
}